; Function Attrs: null_pointer_is_valid sspstrong uwtable
define hidden i32 @mapi_dissect_bitmap_RpcExt2Flags(ptr noundef %0, i32 noundef %1, ptr noundef %2, ptr noundef %3, ptr noundef %4, ptr noundef %5, i32 noundef %6, i32 %7) local_unnamed_addr #0 {
  %9 = alloca i32, align 4
  call void @llvm.lifetime.start.p0(i64 4, ptr nonnull %9) #6
  %10 = getelementptr inbounds nuw i8, ptr %4, i64 25
  %11 = load i8, ptr %10, align 1, !range !9, !noundef !10
  %12 = trunc nuw i8 %11 to i1
  %13 = and i32 %1, 3
  %.not = icmp eq i32 %13, 0
  %or.cond = or i1 %.not, %12
  %14 = and i32 %1, -4
  %15 = add i32 %14, 4
  %.0 = select i1 %or.cond, i32 %1, i32 %15
  %16 = load i32, ptr @ett_mapi_RpcExt2Flags, align 4
  %17 = load i8, ptr %5, align 1
  %18 = and i8 %17, 16
  %19 = zext nneg i8 %18 to i32
  %20 = shl nuw i32 %19, 27
  %21 = tail call ptr @proto_tree_add_bitmask_with_flags(ptr noundef %3, ptr noundef %0, i32 noundef %.0, i32 noundef %6, i32 noundef %16, ptr noundef nonnull @mapi_dissect_bitmap_RpcExt2Flags.mapi_RpcExt2Flags_fields, i32 noundef %20, i32 noundef 4)
  %22 = call i32 @dissect_ndr_uint32(ptr noundef %0, i32 noundef %.0, ptr noundef %2, ptr noundef %3, ptr noundef %4, ptr noundef %5, i32 noundef -1, ptr noundef nonnull %9)
  %23 = load i32, ptr %9, align 4
  %.not18 = icmp eq i32 %23, 0
  br i1 %.not18, label %24, label %25

24:                                               ; preds = %8
  call void (ptr, ptr, ...) @proto_item_append_text(ptr noundef %21, ptr noundef nonnull @.str.3868)
  %.pre = load i32, ptr %9, align 4
  br label %25

25:                                               ; preds = %24, %8
  %26 = phi i32 [ %.pre, %24 ], [ %23, %8 ]
  %27 = and i32 %26, -8
  %.not19 = icmp eq i32 %27, 0
  br i1 %.not19, label %29, label %28

28:                                               ; preds = %25
  store i32 %27, ptr %9, align 4
  call void (ptr, ptr, ...) @proto_item_append_text(ptr noundef %21, ptr noundef nonnull @.str.3869, i32 noundef %27)
  br label %29

29:                                               ; preds = %28, %25
  call void @llvm.lifetime.end.p0(i64 4, ptr nonnull %9) #6
  ret i32 %22
}